; Function Attrs: nounwind uwtable
define dso_local i32 @pg_encoding_dsplen(i32 noundef %0, ptr noundef %1) local_unnamed_addr #7 {
  %or.cond = icmp ult i32 %0, 42
  br i1 %or.cond, label %3, label %8

3:                                                ; preds = %2
  %4 = zext nneg i32 %0 to i64
  %5 = getelementptr inbounds nuw [42 x %struct.pg_wchar_tbl], ptr @pg_wchar_table, i64 0, i64 %4, i32 3
  %6 = load ptr, ptr %5, align 8
  %7 = tail call i32 %6(ptr noundef %1) #10
  br label %13

8:                                                ; preds = %2
  %9 = load i8, ptr %1, align 1
  %10 = icmp eq i8 %9, 0
  %11 = icmp ult i8 %9, 32
  %12 = icmp eq i8 %9, 127
  %or.cond.i = or i1 %11, %12
  %spec.select.i = select i1 %or.cond.i, i32 -1, i32 1
  %.0.i = select i1 %10, i32 0, i32 %spec.select.i
  br label %13

13:                                               ; preds = %8, %3
  %14 = phi i32 [ %7, %3 ], [ %.0.i, %8 ]
  ret i32 %14
}